target datalayout = "e-m:e-p270:32:32-p271:32:32-p272:64:64-i64:64-i128:128-f80:128-n8:16:32:64-S128"
target triple = "x86_64-pc-linux-gnu"

%struct.RBasic = type { i64, i64 }
%struct.RFile = type { %struct.RBasic, ptr }
%struct.connect_arg = type { i32, i32, ptr }

@rb_eIOTimeoutError = external global i64, align 8
@.str.19 = private unnamed_addr constant [19 x i8] c"Connect timed out!\00", align 1

; Function Attrs: inlinehint nounwind sspstrong willreturn memory(none) uwtable
define internal zeroext i1 @RB_FIXNUM_P(i64 noundef %0) #12 {
  %2 = alloca i64, align 8
  store i64 %0, ptr %2, align 8, !tbaa !13
  %3 = load i64, ptr %2, align 8, !tbaa !13
  %4 = and i64 %3, 1
  %5 = icmp ne i64 %4, 0
  ret i1 %5
}

; Function Attrs: inlinehint nounwind sspstrong willreturn memory(none) uwtable
define internal i64 @RB_INT2FIX(i64 noundef %0) #12 {
  %2 = alloca i64, align 8
  %3 = alloca i64, align 8
  %4 = alloca i64, align 8
  %5 = alloca i64, align 8
  %6 = alloca i64, align 8
  %7 = alloca i64, align 8
  store i64 %0, ptr %2, align 8, !tbaa !13
  call void @llvm.lifetime.start.p0(i64 8, ptr %3) #21
  %8 = load i64, ptr %2, align 8, !tbaa !13
  store i64 %8, ptr %3, align 8, !tbaa !13
  call void @llvm.lifetime.start.p0(i64 8, ptr %4) #21
  %9 = load i64, ptr %3, align 8, !tbaa !13
  %10 = shl i64 %9, 1
  %11 = add i64 %10, 1
  store i64 %11, ptr %4, align 8, !tbaa !13
  call void @llvm.lifetime.start.p0(i64 8, ptr %5) #21
  %12 = load i64, ptr %4, align 8, !tbaa !13
  store i64 %12, ptr %5, align 8, !tbaa !13
  call void @llvm.lifetime.start.p0(i64 8, ptr %6) #21
  %13 = load i64, ptr %5, align 8, !tbaa !13
  store i64 %13, ptr %6, align 8, !tbaa !13
  call void @llvm.lifetime.start.p0(i64 8, ptr %7) #21
  %14 = load i64, ptr %6, align 8, !tbaa !13
  store i64 %14, ptr %7, align 8, !tbaa !13
  %15 = load i64, ptr %7, align 8, !tbaa !13
  call void @llvm.lifetime.end.p0(i64 8, ptr %7) #21
  call void @llvm.lifetime.end.p0(i64 8, ptr %6) #21
  call void @llvm.lifetime.end.p0(i64 8, ptr %5) #21
  call void @llvm.lifetime.end.p0(i64 8, ptr %4) #21
  call void @llvm.lifetime.end.p0(i64 8, ptr %3) #21
  ret i64 %15
}

; Function Attrs: inlinehint nounwind sspstrong uwtable
define internal i32 @rb_num2int_inline(i64 noundef %0) #6 {
  %2 = alloca i64, align 8
  %3 = alloca i64, align 8
  store i64 %0, ptr %2, align 8, !tbaa !13
  call void @llvm.lifetime.start.p0(i64 8, ptr %3) #21
  %4 = load i64, ptr %2, align 8, !tbaa !13
  %5 = call zeroext i1 @RB_FIXNUM_P(i64 noundef %4) #23
  br i1 %5, label %6, label %9

6:                                                ; preds = %1
  %7 = load i64, ptr %2, align 8, !tbaa !13
  %8 = call i64 @rb_fix2int(i64 noundef %7)
  store i64 %8, ptr %3, align 8, !tbaa !13
  br label %12

9:                                                ; preds = %1
  %10 = load i64, ptr %2, align 8, !tbaa !13
  %11 = call i64 @rb_num2int(i64 noundef %10)
  store i64 %11, ptr %3, align 8, !tbaa !13
  br label %12

12:                                               ; preds = %9, %6
  %13 = load i64, ptr %3, align 8, !tbaa !13
  %14 = trunc i64 %13 to i32
  call void @llvm.lifetime.end.p0(i64 8, ptr %3) #21
  ret i32 %14
}

; Function Attrs: inlinehint nounwind sspstrong uwtable
define internal i64 @rb_int2num_inline(i32 noundef %0) #6 {
  %2 = alloca i64, align 8
  %3 = alloca i32, align 4
  store i32 %0, ptr %3, align 4, !tbaa !11
  %4 = load i32, ptr %3, align 4, !tbaa !11
  %5 = sext i32 %4 to i64
  %6 = icmp slt i64 %5, 4611686018427387904
  br i1 %6, label %7, label %15

7:                                                ; preds = %1
  %8 = load i32, ptr %3, align 4, !tbaa !11
  %9 = sext i32 %8 to i64
  %10 = icmp sge i64 %9, -4611686018427387904
  br i1 %10, label %11, label %15

11:                                               ; preds = %7
  %12 = load i32, ptr %3, align 4, !tbaa !11
  %13 = sext i32 %12 to i64
  %14 = call i64 @RB_INT2FIX(i64 noundef %13) #23
  store i64 %14, ptr %2, align 8
  br label %19

15:                                               ; preds = %7, %1
  %16 = load i32, ptr %3, align 4, !tbaa !11
  %17 = sext i32 %16 to i64
  %18 = call i64 @rb_int2big(i64 noundef %17)
  store i64 %18, ptr %2, align 8
  br label %19

19:                                               ; preds = %15, %11
  %20 = load i64, ptr %2, align 8
  ret i64 %20
}

; Function Attrs: nounwind sspstrong uwtable
define internal i32 @wait_connectable(i64 noundef %0, i64 noundef %1) #0 {
  %3 = alloca i32, align 4
  %4 = alloca i64, align 8
  %5 = alloca i64, align 8
  %6 = alloca i32, align 4
  %7 = alloca i32, align 4
  %8 = alloca i32, align 4
  %9 = alloca i32, align 4
  %10 = alloca i64, align 8
  %11 = alloca i32, align 4
  store i64 %0, ptr %4, align 8, !tbaa !13
  store i64 %1, ptr %5, align 8, !tbaa !13
  call void @llvm.lifetime.start.p0(i64 4, ptr %6) #21
  call void @llvm.lifetime.start.p0(i64 4, ptr %7) #21
  call void @llvm.lifetime.start.p0(i64 4, ptr %8) #21
  %12 = load i64, ptr %4, align 8, !tbaa !13
  %13 = call i32 @rb_io_descriptor(i64 noundef %12)
  store i32 %13, ptr %8, align 4, !tbaa !11
  store i32 4, ptr %7, align 4, !tbaa !11
  %14 = load i32, ptr %8, align 4, !tbaa !11
  %15 = call i32 @getsockopt(i32 noundef %14, i32 noundef 1, i32 noundef 4, ptr noundef %6, ptr noundef %7) #21
  %16 = icmp slt i32 %15, 0
  br i1 %16, label %17, label %18

17:                                               ; preds = %2
  store i32 -1, ptr %3, align 4
  store i32 1, ptr %9, align 4
  br label %50

18:                                               ; preds = %2
  %19 = load i32, ptr %6, align 4, !tbaa !11
  switch i32 %19, label %23 [
    i32 0, label %23
    i32 114, label %20
    i32 106, label %20
    i32 111, label %20
    i32 113, label %20
  ]

20:                                               ; preds = %18, %18, %18, %18
  %21 = load i32, ptr %6, align 4, !tbaa !11
  %22 = call ptr @rb_errno_ptr()
  store i32 %21, ptr %22, align 4, !tbaa !11
  store i32 -1, ptr %3, align 4
  store i32 1, ptr %9, align 4
  br label %50

23:                                               ; preds = %18, %18
  call void @llvm.lifetime.start.p0(i64 8, ptr %10) #21
  %24 = load i64, ptr %4, align 8, !tbaa !13
  %25 = call i64 @rb_int2num_inline(i32 noundef 5)
  %26 = load i64, ptr %5, align 8, !tbaa !13
  %27 = call i64 @rb_io_wait(i64 noundef %24, i64 noundef %25, i64 noundef %26)
  store i64 %27, ptr %10, align 8, !tbaa !13
  %28 = load i64, ptr %10, align 8, !tbaa !13
  %29 = icmp eq i64 %28, 0
  br i1 %29, label %30, label %32

30:                                               ; preds = %23
  %31 = load i64, ptr @rb_eIOTimeoutError, align 8, !tbaa !13
  call void (i64, ptr, ...) @rb_raise(i64 noundef %31, ptr noundef @.str.19) #22
  unreachable

32:                                               ; preds = %23
  call void @llvm.lifetime.start.p0(i64 4, ptr %11) #21
  %33 = load i64, ptr %10, align 8, !tbaa !13
  %34 = call i32 @rb_num2int_inline(i64 noundef %33)
  store i32 %34, ptr %11, align 4, !tbaa !11
  %35 = load i32, ptr %11, align 4, !tbaa !11
  %36 = icmp slt i32 %35, 0
  br i1 %36, label %37, label %38

37:                                               ; preds = %32
  store i32 -1, ptr %3, align 4
  store i32 1, ptr %9, align 4
  br label %49

38:                                               ; preds = %32
  store i32 4, ptr %7, align 4, !tbaa !11
  %39 = load i32, ptr %8, align 4, !tbaa !11
  %40 = call i32 @getsockopt(i32 noundef %39, i32 noundef 1, i32 noundef 4, ptr noundef %6, ptr noundef %7) #21
  %41 = icmp slt i32 %40, 0
  br i1 %41, label %42, label %43

42:                                               ; preds = %38
  store i32 -1, ptr %3, align 4
  store i32 1, ptr %9, align 4
  br label %49

43:                                               ; preds = %38
  %44 = load i32, ptr %6, align 4, !tbaa !11
  switch i32 %44, label %46 [
    i32 0, label %45
    i32 4, label %45
    i32 85, label %45
    i32 11, label %45
    i32 115, label %45
    i32 114, label %45
    i32 106, label %45
  ]

45:                                               ; preds = %43, %43, %43, %43, %43, %43, %43
  store i32 0, ptr %3, align 4
  store i32 1, ptr %9, align 4
  br label %49

46:                                               ; preds = %43
  %47 = load i32, ptr %6, align 4, !tbaa !11
  %48 = call ptr @rb_errno_ptr()
  store i32 %47, ptr %48, align 4, !tbaa !11
  store i32 -1, ptr %3, align 4
  store i32 1, ptr %9, align 4
  br label %49

49:                                               ; preds = %46, %45, %42, %37
  call void @llvm.lifetime.end.p0(i64 4, ptr %11) #21
  call void @llvm.lifetime.end.p0(i64 8, ptr %10) #21
  br label %50

50:                                               ; preds = %49, %20, %17
  call void @llvm.lifetime.end.p0(i64 4, ptr %8) #21
  call void @llvm.lifetime.end.p0(i64 4, ptr %7) #21
  call void @llvm.lifetime.end.p0(i64 4, ptr %6) #21
  %51 = load i32, ptr %3, align 4
  ret i32 %51
}

; Function Attrs: nounwind sspstrong uwtable
define i32 @rsock_connect(i64 noundef %0, ptr noundef %1, i32 noundef %2, i32 noundef %3, i64 noundef %4) #0 {
  %6 = alloca i32, align 4
  %7 = alloca i64, align 8
  %8 = alloca ptr, align 8
  %9 = alloca i32, align 4
  %10 = alloca i32, align 4
  %11 = alloca i64, align 8
  %12 = alloca i32, align 4
  %13 = alloca ptr, align 8
  %14 = alloca %struct.connect_arg, align 8
  %15 = alloca ptr, align 8
  %16 = alloca i32, align 4
  %17 = alloca i32, align 4
  store i64 %0, ptr %7, align 8, !tbaa !13
  store ptr %1, ptr %8, align 8, !tbaa !67
  store i32 %2, ptr %9, align 4, !tbaa !11
  store i32 %3, ptr %10, align 4, !tbaa !11
  store i64 %4, ptr %11, align 8, !tbaa !13
  call void @llvm.lifetime.start.p0(i64 4, ptr %12) #21
  %18 = load i64, ptr %7, align 8, !tbaa !13
  %19 = call i32 @rb_io_descriptor(i64 noundef %18)
  store i32 %19, ptr %12, align 4, !tbaa !11
  call void @llvm.lifetime.start.p0(i64 8, ptr %13) #21
  store ptr @connect_blocking, ptr %13, align 8, !tbaa !25
  call void @llvm.lifetime.start.p0(i64 16, ptr %14) #21
  %20 = getelementptr inbounds nuw %struct.connect_arg, ptr %14, i32 0, i32 0
  %21 = load i32, ptr %12, align 4, !tbaa !11
  store i32 %21, ptr %20, align 8, !tbaa !68
  %22 = getelementptr inbounds nuw %struct.connect_arg, ptr %14, i32 0, i32 1
  %23 = load i32, ptr %9, align 4, !tbaa !11
  store i32 %23, ptr %22, align 4, !tbaa !70
  %24 = getelementptr inbounds nuw %struct.connect_arg, ptr %14, i32 0, i32 2
  %25 = load ptr, ptr %8, align 8, !tbaa !67
  store ptr %25, ptr %24, align 8, !tbaa !71
  call void @llvm.lifetime.start.p0(i64 8, ptr %15) #21
  %26 = load i64, ptr %7, align 8, !tbaa !13
  %27 = call i64 @rb_io_taint_check(i64 noundef %26)
  %28 = inttoptr i64 %27 to ptr
  %29 = getelementptr inbounds nuw %struct.RFile, ptr %28, i32 0, i32 1
  %30 = load ptr, ptr %29, align 8, !tbaa !43
  store ptr %30, ptr %15, align 8, !tbaa !15
  call void @rb_io_check_closed(ptr noundef %30)
  call void @llvm.lifetime.start.p0(i64 4, ptr %16) #21
  %31 = load ptr, ptr %15, align 8, !tbaa !15
  %32 = load ptr, ptr %13, align 8, !tbaa !25
  %33 = call i64 @rb_io_blocking_region(ptr noundef %31, ptr noundef %32, ptr noundef %14)
  %34 = trunc i64 %33 to i32
  store i32 %34, ptr %16, align 4, !tbaa !11
  %35 = load i32, ptr %16, align 4, !tbaa !11
  %36 = icmp slt i32 %35, 0
  br i1 %36, label %37, label %45

37:                                               ; preds = %5
  %38 = call ptr @rb_errno_ptr()
  %39 = load i32, ptr %38, align 4, !tbaa !11
  switch i32 %39, label %44 [
    i32 4, label %40
    i32 85, label %40
    i32 11, label %40
    i32 115, label %40
  ]

40:                                               ; preds = %37, %37, %37, %37
  %41 = load i64, ptr %7, align 8, !tbaa !13
  %42 = load i64, ptr %11, align 8, !tbaa !13
  %43 = call i32 @wait_connectable(i64 noundef %41, i64 noundef %42)
  store i32 %43, ptr %6, align 4
  store i32 1, ptr %17, align 4
  br label %47

44:                                               ; preds = %37
  br label %45

45:                                               ; preds = %44, %5
  %46 = load i32, ptr %16, align 4, !tbaa !11
  store i32 %46, ptr %6, align 4
  store i32 1, ptr %17, align 4
  br label %47

47:                                               ; preds = %45, %40
  call void @llvm.lifetime.end.p0(i64 4, ptr %16) #21
  call void @llvm.lifetime.end.p0(i64 8, ptr %15) #21
  call void @llvm.lifetime.end.p0(i64 16, ptr %14) #21
  call void @llvm.lifetime.end.p0(i64 8, ptr %13) #21
  call void @llvm.lifetime.end.p0(i64 4, ptr %12) #21
  %48 = load i32, ptr %6, align 4
  ret i32 %48
}