; Function Attrs: nounwind sspstrong uwtable
define i32 @rsock_connect(i64 noundef %0, ptr noundef %1, i32 noundef %2, i32 noundef %3, i64 noundef %4) local_unnamed_addr #0 {
  %6 = alloca i32, align 4
  %7 = alloca i32, align 4
  %8 = alloca %struct.connect_arg, align 8
  %9 = tail call i32 @rb_io_descriptor(i64 noundef %0) #10
  call void @llvm.lifetime.start.p0(i64 16, ptr nonnull %8) #10
  store i32 %9, ptr %8, align 8, !tbaa !68
  %10 = getelementptr inbounds nuw i8, ptr %8, i64 4
  store i32 %2, ptr %10, align 4, !tbaa !70
  %11 = getelementptr inbounds nuw i8, ptr %8, i64 8
  store ptr %1, ptr %11, align 8, !tbaa !71
  %12 = tail call i64 @rb_io_taint_check(i64 noundef %0) #10
  %13 = inttoptr i64 %12 to ptr
  %14 = getelementptr inbounds nuw i8, ptr %13, i64 16
  %15 = load ptr, ptr %14, align 8, !tbaa !47
  tail call void @rb_io_check_closed(ptr noundef %15) #10
  %16 = call i64 @rb_io_blocking_region(ptr noundef %15, ptr noundef nonnull @connect_blocking, ptr noundef nonnull %8) #10
  %17 = trunc i64 %16 to i32
  %18 = icmp slt i32 %17, 0
  br i1 %18, label %19, label %48

19:                                               ; preds = %5
  %20 = call ptr @rb_errno_ptr() #10
  %21 = load i32, ptr %20, align 4, !tbaa !6
  switch i32 %21, label %48 [
    i32 4, label %22
    i32 85, label %22
    i32 11, label %22
    i32 115, label %22
  ]

22:                                               ; preds = %19, %19, %19, %19
  call void @llvm.lifetime.start.p0(i64 4, ptr nonnull %6) #10
  call void @llvm.lifetime.start.p0(i64 4, ptr nonnull %7) #10
  %23 = call i32 @rb_io_descriptor(i64 noundef %0) #10
  store i32 4, ptr %7, align 4, !tbaa !6
  %24 = call i32 @getsockopt(i32 noundef %23, i32 noundef 1, i32 noundef 4, ptr noundef nonnull %6, ptr noundef nonnull %7) #10
  %25 = icmp slt i32 %24, 0
  br i1 %25, label %wait_connectable.exit, label %26

26:                                               ; preds = %22
  %27 = load i32, ptr %6, align 4, !tbaa !6
  %switch.tableidx = add i32 %27, -106
  %28 = icmp ult i32 %switch.tableidx, 9
  br i1 %28, label %switch.hole_check, label %29

29:                                               ; preds = %switch.hole_check, %26
  %30 = call i64 @rb_io_wait(i64 noundef %0, i64 noundef 11, i64 noundef %4) #10
  %31 = icmp eq i64 %30, 0
  br i1 %31, label %32, label %34

32:                                               ; preds = %29
  %33 = load i64, ptr @rb_eIOTimeoutError, align 8, !tbaa !10
  call void (i64, ptr, ...) @rb_raise(i64 noundef %33, ptr noundef nonnull @.str.19) #11
  unreachable

34:                                               ; preds = %29
  %35 = and i64 %30, 1
  %.not.i.i = icmp eq i64 %35, 0
  br i1 %.not.i.i, label %38, label %36

36:                                               ; preds = %34
  %37 = call i64 @rb_fix2int(i64 noundef %30) #10
  br label %rb_num2int_inline.exit.i

38:                                               ; preds = %34
  %39 = call i64 @rb_num2int(i64 noundef %30) #10
  br label %rb_num2int_inline.exit.i

rb_num2int_inline.exit.i:                         ; preds = %38, %36
  %.0.i.i = phi i64 [ %37, %36 ], [ %39, %38 ]
  %40 = and i64 %.0.i.i, 2147483648
  %.not.i = icmp eq i64 %40, 0
  br i1 %.not.i, label %41, label %wait_connectable.exit

41:                                               ; preds = %rb_num2int_inline.exit.i
  store i32 4, ptr %7, align 4, !tbaa !6
  %42 = call i32 @getsockopt(i32 noundef %23, i32 noundef 1, i32 noundef 4, ptr noundef nonnull %6, ptr noundef nonnull %7) #10
  %43 = icmp slt i32 %42, 0
  br i1 %43, label %wait_connectable.exit, label %44

44:                                               ; preds = %41
  %45 = load i32, ptr %6, align 4, !tbaa !6
  switch i32 %45, label %.sink.split.i [
    i32 0, label %wait_connectable.exit
    i32 4, label %wait_connectable.exit
    i32 85, label %wait_connectable.exit
    i32 11, label %wait_connectable.exit
    i32 115, label %wait_connectable.exit
    i32 114, label %wait_connectable.exit
    i32 106, label %wait_connectable.exit
  ]

switch.hole_check:                                ; preds = %26
  %switch.maskindex = trunc nuw i32 %switch.tableidx to i16
  %switch.shifted = lshr i16 417, %switch.maskindex
  %switch.lobit = trunc i16 %switch.shifted to i1
  br i1 %switch.lobit, label %switch.lookup, label %29

switch.lookup:                                    ; preds = %switch.hole_check
  %46 = zext nneg i32 %switch.tableidx to i64
  %switch.gep = getelementptr inbounds nuw [9 x i32], ptr @switch.table.rsock_connect, i64 0, i64 %46
  %switch.load = load i32, ptr %switch.gep, align 4
  br label %.sink.split.i

.sink.split.i:                                    ; preds = %switch.lookup, %44
  %.sink.i = phi i32 [ %45, %44 ], [ %switch.load, %switch.lookup ]
  %47 = call ptr @rb_errno_ptr() #10
  store i32 %.sink.i, ptr %47, align 4, !tbaa !6
  br label %wait_connectable.exit

wait_connectable.exit:                            ; preds = %22, %rb_num2int_inline.exit.i, %41, %44, %44, %44, %44, %44, %44, %44, %.sink.split.i
  %.0.i = phi i32 [ -1, %22 ], [ -1, %rb_num2int_inline.exit.i ], [ -1, %41 ], [ 0, %44 ], [ 0, %44 ], [ 0, %44 ], [ 0, %44 ], [ 0, %44 ], [ 0, %44 ], [ 0, %44 ], [ -1, %.sink.split.i ]
  call void @llvm.lifetime.end.p0(i64 4, ptr nonnull %7) #10
  call void @llvm.lifetime.end.p0(i64 4, ptr nonnull %6) #10
  br label %48

48:                                               ; preds = %5, %19, %wait_connectable.exit
  %.0 = phi i32 [ %.0.i, %wait_connectable.exit ], [ %17, %19 ], [ %17, %5 ]
  call void @llvm.lifetime.end.p0(i64 16, ptr nonnull %8) #10
  ret i32 %.0
}